target datalayout = "e-m:e-p270:32:32-p271:32:32-p272:64:64-i64:64-i128:128-f80:128-n8:16:32:64-S128"
target triple = "x86_64-pc-linux-gnu"

%struct.FullTransactionId = type { i64 }
%struct.FunctionCallInfoBaseData = type { ptr, ptr, ptr, i32, i8, i16, [0 x %struct.NullableDatum] }
%struct.NullableDatum = type { i64, i8 }

; Function Attrs: inlinehint nounwind uwtable
define internal i64 @UInt64GetDatum(i64 noundef %0) #2 {
  %2 = alloca i64, align 8
  store i64 %0, ptr %2, align 8
  %3 = load i64, ptr %2, align 8
  ret i64 %3
}

; Function Attrs: inlinehint nounwind uwtable
define internal i64 @FullTransactionIdGetDatum(i64 %0) #2 {
  %2 = alloca %struct.FullTransactionId, align 8
  %3 = getelementptr inbounds nuw %struct.FullTransactionId, ptr %2, i32 0, i32 0
  store i64 %0, ptr %3, align 8
  %4 = getelementptr inbounds nuw %struct.FullTransactionId, ptr %2, i32 0, i32 0
  %5 = load i64, ptr %4, align 8
  %6 = call i64 @UInt64GetDatum(i64 noundef %5)
  ret i64 %6
}

; Function Attrs: nounwind uwtable
define dso_local i64 @pg_current_xact_id_if_assigned(ptr noundef %0) #0 {
  %2 = alloca i64, align 8
  %3 = alloca ptr, align 8
  %4 = alloca %struct.FullTransactionId, align 8
  %5 = alloca i32, align 4
  store ptr %0, ptr %3, align 8
  call void @llvm.lifetime.start.p0(i64 8, ptr %4) #9
  %6 = call i64 @GetTopFullTransactionIdIfAny()
  %7 = getelementptr inbounds nuw %struct.FullTransactionId, ptr %4, i32 0, i32 0
  store i64 %6, ptr %7, align 8
  %8 = getelementptr inbounds nuw %struct.FullTransactionId, ptr %4, i32 0, i32 0
  %9 = load i64, ptr %8, align 8
  %10 = trunc i64 %9 to i32
  %11 = icmp ne i32 %10, 0
  br i1 %11, label %18, label %12

12:                                               ; preds = %1
  br label %13

13:                                               ; preds = %12
  %14 = load ptr, ptr %3, align 8
  %15 = getelementptr inbounds nuw %struct.FunctionCallInfoBaseData, ptr %14, i32 0, i32 4
  store i8 1, ptr %15, align 4
  store i64 0, ptr %2, align 8
  store i32 1, ptr %5, align 4
  br label %22

16:                                               ; No predecessors!
  br label %17

17:                                               ; preds = %16
  br label %18

18:                                               ; preds = %17, %1
  %19 = getelementptr inbounds nuw %struct.FullTransactionId, ptr %4, i32 0, i32 0
  %20 = load i64, ptr %19, align 8
  %21 = call i64 @FullTransactionIdGetDatum(i64 %20)
  store i64 %21, ptr %2, align 8
  store i32 1, ptr %5, align 4
  br label %22

22:                                               ; preds = %18, %13
  call void @llvm.lifetime.end.p0(i64 8, ptr %4) #9
  %23 = load i64, ptr %2, align 8
  ret i64 %23
}