; Function Attrs: nounwind uwtable
define dso_local i64 @pg_current_xact_id_if_assigned(ptr noundef writeonly captures(none) %0) local_unnamed_addr #0 {
  %2 = tail call i64 @GetTopFullTransactionIdIfAny() #11
  %3 = and i64 %2, 4294967295
  %.not = icmp eq i64 %3, 0
  br i1 %.not, label %4, label %6

4:                                                ; preds = %1
  %5 = getelementptr inbounds nuw i8, ptr %0, i64 28
  store i8 1, ptr %5, align 4
  br label %6

6:                                                ; preds = %1, %4
  %.0 = phi i64 [ 0, %4 ], [ %2, %1 ]
  ret i64 %.0
}